target datalayout = "e-m:e-p270:32:32-p271:32:32-p272:64:64-i64:64-i128:128-f80:128-n8:16:32:64-S128"
target triple = "x86_64-pc-linux-gnu"

%"struct.OpenSubdiv::v3_6_0::Osd::BufferDescriptor" = type { i32, i32, i32 }

; Function Attrs: mustprogress nounwind uwtable
define linkonce_odr void @_ZN10OpenSubdiv6v3_6_03Osd16BufferDescriptorC2Ev(ptr noundef nonnull align 4 dereferenceable(12) %0) unnamed_addr #5 comdat align 2 {
  %2 = alloca ptr, align 8
  store ptr %0, ptr %2, align 8
  %3 = load ptr, ptr %2, align 8
  %4 = getelementptr inbounds nuw %"struct.OpenSubdiv::v3_6_0::Osd::BufferDescriptor", ptr %3, i32 0, i32 0
  store i32 0, ptr %4, align 4
  %5 = getelementptr inbounds nuw %"struct.OpenSubdiv::v3_6_0::Osd::BufferDescriptor", ptr %3, i32 0, i32 1
  store i32 0, ptr %5, align 4
  %6 = getelementptr inbounds nuw %"struct.OpenSubdiv::v3_6_0::Osd::BufferDescriptor", ptr %3, i32 0, i32 2
  store i32 0, ptr %6, align 4
  ret void
}

; Function Attrs: mustprogress uwtable
define noundef zeroext i1 @_ZN10OpenSubdiv6v3_6_03Osd12TbbEvaluator12EvalStencilsEPKfRKNS1_16BufferDescriptorEPfS7_S8_S7_S8_S7_PKiSA_SA_S4_S4_S4_ii(ptr noundef %0, ptr noundef nonnull align 4 dereferenceable(12) %1, ptr noundef %2, ptr noundef nonnull align 4 dereferenceable(12) %3, ptr noundef %4, ptr noundef nonnull align 4 dereferenceable(12) %5, ptr noundef %6, ptr noundef nonnull align 4 dereferenceable(12) %7, ptr noundef %8, ptr noundef %9, ptr noundef %10, ptr noundef %11, ptr noundef %12, ptr noundef %13, i32 noundef %14, i32 noundef %15) #4 align 2 {
  %17 = alloca i1, align 1
  %18 = alloca ptr, align 8
  %19 = alloca ptr, align 8
  %20 = alloca ptr, align 8
  %21 = alloca ptr, align 8
  %22 = alloca ptr, align 8
  %23 = alloca ptr, align 8
  %24 = alloca ptr, align 8
  %25 = alloca ptr, align 8
  %26 = alloca ptr, align 8
  %27 = alloca ptr, align 8
  %28 = alloca ptr, align 8
  %29 = alloca ptr, align 8
  %30 = alloca ptr, align 8
  %31 = alloca ptr, align 8
  %32 = alloca i32, align 4
  %33 = alloca i32, align 4
  %34 = alloca %"struct.OpenSubdiv::v3_6_0::Osd::BufferDescriptor", align 4
  %35 = alloca %"struct.OpenSubdiv::v3_6_0::Osd::BufferDescriptor", align 4
  %36 = alloca %"struct.OpenSubdiv::v3_6_0::Osd::BufferDescriptor", align 4
  store ptr %0, ptr %18, align 8
  store ptr %1, ptr %19, align 8
  store ptr %2, ptr %20, align 8
  store ptr %3, ptr %21, align 8
  store ptr %4, ptr %22, align 8
  store ptr %5, ptr %23, align 8
  store ptr %6, ptr %24, align 8
  store ptr %7, ptr %25, align 8
  store ptr %8, ptr %26, align 8
  store ptr %9, ptr %27, align 8
  store ptr %10, ptr %28, align 8
  store ptr %11, ptr %29, align 8
  store ptr %12, ptr %30, align 8
  store ptr %13, ptr %31, align 8
  store i32 %14, ptr %32, align 4
  store i32 %15, ptr %33, align 4
  %37 = load i32, ptr %33, align 4
  %38 = load i32, ptr %32, align 4
  %39 = icmp sle i32 %37, %38
  br i1 %39, label %40, label %41

40:                                               ; preds = %16
  store i1 true, ptr %17, align 1
  br label %85

41:                                               ; preds = %16
  %42 = load ptr, ptr %19, align 8
  %43 = getelementptr inbounds nuw %"struct.OpenSubdiv::v3_6_0::Osd::BufferDescriptor", ptr %42, i32 0, i32 1
  %44 = load i32, ptr %43, align 4
  %45 = load ptr, ptr %21, align 8
  %46 = getelementptr inbounds nuw %"struct.OpenSubdiv::v3_6_0::Osd::BufferDescriptor", ptr %45, i32 0, i32 1
  %47 = load i32, ptr %46, align 4
  %48 = icmp ne i32 %44, %47
  br i1 %48, label %49, label %50

49:                                               ; preds = %41
  store i1 false, ptr %17, align 1
  br label %85

50:                                               ; preds = %41
  %51 = load ptr, ptr %19, align 8
  %52 = getelementptr inbounds nuw %"struct.OpenSubdiv::v3_6_0::Osd::BufferDescriptor", ptr %51, i32 0, i32 1
  %53 = load i32, ptr %52, align 4
  %54 = load ptr, ptr %23, align 8
  %55 = getelementptr inbounds nuw %"struct.OpenSubdiv::v3_6_0::Osd::BufferDescriptor", ptr %54, i32 0, i32 1
  %56 = load i32, ptr %55, align 4
  %57 = icmp ne i32 %53, %56
  br i1 %57, label %58, label %59

58:                                               ; preds = %50
  store i1 false, ptr %17, align 1
  br label %85

59:                                               ; preds = %50
  %60 = load ptr, ptr %19, align 8
  %61 = getelementptr inbounds nuw %"struct.OpenSubdiv::v3_6_0::Osd::BufferDescriptor", ptr %60, i32 0, i32 1
  %62 = load i32, ptr %61, align 4
  %63 = load ptr, ptr %25, align 8
  %64 = getelementptr inbounds nuw %"struct.OpenSubdiv::v3_6_0::Osd::BufferDescriptor", ptr %63, i32 0, i32 1
  %65 = load i32, ptr %64, align 4
  %66 = icmp ne i32 %62, %65
  br i1 %66, label %67, label %68

67:                                               ; preds = %59
  store i1 false, ptr %17, align 1
  br label %85

68:                                               ; preds = %59
  %69 = load ptr, ptr %18, align 8
  %70 = load ptr, ptr %19, align 8
  %71 = load ptr, ptr %20, align 8
  %72 = load ptr, ptr %21, align 8
  %73 = load ptr, ptr %22, align 8
  %74 = load ptr, ptr %23, align 8
  %75 = load ptr, ptr %24, align 8
  %76 = load ptr, ptr %25, align 8
  call void @_ZN10OpenSubdiv6v3_6_03Osd16BufferDescriptorC2Ev(ptr noundef nonnull align 4 dereferenceable(12) %34)
  call void @_ZN10OpenSubdiv6v3_6_03Osd16BufferDescriptorC2Ev(ptr noundef nonnull align 4 dereferenceable(12) %35)
  call void @_ZN10OpenSubdiv6v3_6_03Osd16BufferDescriptorC2Ev(ptr noundef nonnull align 4 dereferenceable(12) %36)
  %77 = load ptr, ptr %26, align 8
  %78 = load ptr, ptr %27, align 8
  %79 = load ptr, ptr %28, align 8
  %80 = load ptr, ptr %29, align 8
  %81 = load ptr, ptr %30, align 8
  %82 = load ptr, ptr %31, align 8
  %83 = load i32, ptr %32, align 4
  %84 = load i32, ptr %33, align 4
  call void @_ZN10OpenSubdiv6v3_6_03Osd15TbbEvalStencilsEPKfRKNS1_16BufferDescriptorEPfS6_S7_S6_S7_S6_S7_S6_S7_S6_S7_S6_PKiS9_S9_S3_S3_S3_S3_S3_S3_ii(ptr noundef %69, ptr noundef nonnull align 4 dereferenceable(12) %70, ptr noundef %71, ptr noundef nonnull align 4 dereferenceable(12) %72, ptr noundef %73, ptr noundef nonnull align 4 dereferenceable(12) %74, ptr noundef %75, ptr noundef nonnull align 4 dereferenceable(12) %76, ptr noundef null, ptr noundef nonnull align 4 dereferenceable(12) %34, ptr noundef null, ptr noundef nonnull align 4 dereferenceable(12) %35, ptr noundef null, ptr noundef nonnull align 4 dereferenceable(12) %36, ptr noundef %77, ptr noundef %78, ptr noundef %79, ptr noundef %80, ptr noundef %81, ptr noundef %82, ptr noundef null, ptr noundef null, ptr noundef null, i32 noundef %83, i32 noundef %84)
  store i1 true, ptr %17, align 1
  br label %85

85:                                               ; preds = %68, %67, %58, %49, %40
  %86 = load i1, ptr %17, align 1
  ret i1 %86
}