; Function Attrs: mustprogress uwtable
define noundef zeroext i1 @_ZN10OpenSubdiv6v3_6_03Osd12TbbEvaluator12EvalStencilsEPKfRKNS1_16BufferDescriptorEPfS7_S8_S7_S8_S7_PKiSA_SA_S4_S4_S4_ii(ptr noundef %0, ptr noundef nonnull align 4 dereferenceable(12) %1, ptr noundef %2, ptr noundef nonnull align 4 dereferenceable(12) %3, ptr noundef %4, ptr noundef nonnull align 4 dereferenceable(12) %5, ptr noundef %6, ptr noundef nonnull align 4 dereferenceable(12) %7, ptr noundef %8, ptr noundef %9, ptr noundef %10, ptr noundef %11, ptr noundef %12, ptr noundef %13, i32 noundef %14, i32 noundef %15) local_unnamed_addr #3 align 2 {
  %17 = alloca %"struct.OpenSubdiv::v3_6_0::Osd::BufferDescriptor", align 4
  %18 = alloca %"struct.OpenSubdiv::v3_6_0::Osd::BufferDescriptor", align 4
  %19 = alloca %"struct.OpenSubdiv::v3_6_0::Osd::BufferDescriptor", align 4
  %.not = icmp sgt i32 %15, %14
  br i1 %.not, label %20, label %36

20:                                               ; preds = %16
  %21 = getelementptr inbounds nuw i8, ptr %1, i64 4
  %22 = load i32, ptr %21, align 4
  %23 = getelementptr inbounds nuw i8, ptr %3, i64 4
  %24 = load i32, ptr %23, align 4
  %.not27 = icmp eq i32 %22, %24
  %25 = getelementptr inbounds nuw i8, ptr %5, i64 4
  %26 = load i32, ptr %25, align 4
  %.not28 = icmp eq i32 %22, %26
  %or.cond = select i1 %.not27, i1 %.not28, i1 false
  %27 = getelementptr inbounds nuw i8, ptr %7, i64 4
  %28 = load i32, ptr %27, align 4
  %.not29 = icmp eq i32 %22, %28
  %or.cond32 = select i1 %or.cond, i1 %.not29, i1 false
  br i1 %or.cond32, label %29, label %36

29:                                               ; preds = %20
  store i32 0, ptr %17, align 4
  %30 = getelementptr inbounds nuw i8, ptr %17, i64 4
  store i32 0, ptr %30, align 4
  %31 = getelementptr inbounds nuw i8, ptr %17, i64 8
  store i32 0, ptr %31, align 4
  store i32 0, ptr %18, align 4
  %32 = getelementptr inbounds nuw i8, ptr %18, i64 4
  store i32 0, ptr %32, align 4
  %33 = getelementptr inbounds nuw i8, ptr %18, i64 8
  store i32 0, ptr %33, align 4
  store i32 0, ptr %19, align 4
  %34 = getelementptr inbounds nuw i8, ptr %19, i64 4
  store i32 0, ptr %34, align 4
  %35 = getelementptr inbounds nuw i8, ptr %19, i64 8
  store i32 0, ptr %35, align 4
  call void @_ZN10OpenSubdiv6v3_6_03Osd15TbbEvalStencilsEPKfRKNS1_16BufferDescriptorEPfS6_S7_S6_S7_S6_S7_S6_S7_S6_S7_S6_PKiS9_S9_S3_S3_S3_S3_S3_S3_ii(ptr noundef %0, ptr noundef nonnull align 4 dereferenceable(12) %1, ptr noundef %2, ptr noundef nonnull align 4 dereferenceable(12) %3, ptr noundef %4, ptr noundef nonnull align 4 dereferenceable(12) %5, ptr noundef %6, ptr noundef nonnull align 4 dereferenceable(12) %7, ptr noundef null, ptr noundef nonnull align 4 dereferenceable(12) %17, ptr noundef null, ptr noundef nonnull align 4 dereferenceable(12) %18, ptr noundef null, ptr noundef nonnull align 4 dereferenceable(12) %19, ptr noundef %8, ptr noundef %9, ptr noundef %10, ptr noundef %11, ptr noundef %12, ptr noundef %13, ptr noundef null, ptr noundef null, ptr noundef null, i32 noundef %14, i32 noundef %15)
  br label %36

36:                                               ; preds = %20, %16, %29
  %.0 = phi i1 [ true, %29 ], [ true, %16 ], [ false, %20 ]
  ret i1 %.0
}